#include <math.h>
#include <stdio.h>
#include <stdlib.h>
#include <string.h>

void main()
{int a[16],i,j,k,m,n;
 for(m=0;;m++)
 {   for(i=0;i<16;i++)
 {     scanf("%d",&a[i]);
       if(a[i]==-1) return;
	   if(a[i]==0) break;
 }
     n=0;
     for(j=0;j<i;j++)
	
		 for(k=0;k<i;k++)
			 if(a[j]==2*a[k])
				 n++;
	 
	 printf("%d\n",n);

 }
}